Certificate:
    Data:
        Version: 3 (0x2)
        Serial Number: 1 (0x1)
        Signature Algorithm: sha256WithRSAEncryption
        Issuer: C=FR, ST=Radius, L=Somewhere, O=Example Inc./emailAddress=admin@example.org, CN=Example Certificate Authority
        Validity
            Not Before: Aug 23 09:53:34 2023 GMT
            Not After : Oct 22 09:53:34 2023 GMT
        Subject: C=FR, ST=Radius, O=Example Inc., CN=Example Server Certificate/emailAddress=admin@example.org
        Subject Public Key Info:
            Public Key Algorithm: rsaEncryption
                RSA Public-Key: (2048 bit)
                Modulus:
                    00:ac:16:d8:b0:3b:5f:33:9f:69:33:ee:62:7b:6f:
                    56:39:c2:e6:c8:d5:16:60:2f:03:36:4f:5a:98:49:
                    03:8a:6d:76:3e:ca:96:55:58:af:9c:23:be:d2:93:
                    f4:b1:88:c6:53:4f:7a:b0:5a:03:e1:52:ac:4a:2d:
                    34:ed:fa:f3:90:92:1d:8e:67:ab:5f:d8:81:d7:72:
                    44:ce:66:94:b8:be:df:3f:e5:1b:5b:11:31:a0:6b:
                    62:19:65:81:ea:9c:ce:ef:9b:16:17:ea:10:0b:44:
                    ce:74:ae:8e:f3:b9:04:0c:64:4f:95:ab:eb:2f:a5:
                    99:26:f4:7c:37:a1:c2:88:8c:6c:54:9b:69:aa:99:
                    01:dc:a8:97:1d:0f:bc:4f:24:e1:8e:82:c8:23:cf:
                    e1:df:10:2e:da:c1:30:66:d6:bd:66:4f:8f:e4:cf:
                    eb:16:46:b8:49:bf:eb:fa:5a:1b:78:ee:d1:d4:e6:
                    58:42:b1:35:df:f3:dc:9e:4c:56:e6:0d:fe:74:7c:
                    8d:8f:55:4f:7d:af:5f:53:83:1a:f4:ef:ec:22:03:
                    04:0d:0f:40:bd:f0:cb:65:27:6e:f9:e8:f9:32:c0:
                    9b:da:5c:0e:88:bb:a2:76:ce:37:8c:df:b1:01:f0:
                    f9:7d:32:40:9d:f7:8c:72:3c:cd:32:75:9a:05:3a:
                    22:fb
                Exponent: 65537 (0x10001)
        X509v3 extensions:
            X509v3 Extended Key Usage: 
                TLS Web Server Authentication
            X509v3 CRL Distribution Points: 

                Full Name:
                  URI:http://www.example.com/example_ca.crl

            X509v3 Certificate Policies: 
                Policy: 1.3.6.1.4.1.40808.1.3.2

    Signature Algorithm: sha256WithRSAEncryption
         3c:15:50:23:66:26:0b:11:6d:69:13:b6:21:68:da:ab:86:85:
         0a:49:35:30:36:39:50:2d:7d:59:e3:77:05:04:c4:13:bb:f7:
         5f:a9:00:b8:2b:5c:35:a0:0a:62:19:95:1c:87:9e:3d:9c:52:
         33:a2:72:66:30:5c:08:ed:c9:6d:0e:d3:70:bd:8d:d6:6f:fb:
         24:76:85:08:00:7f:91:b3:60:ec:df:ed:a9:61:3e:2c:48:1d:
         e5:30:b7:ef:61:44:16:c0:7e:94:e3:64:29:75:ea:11:81:e3:
         f4:8e:f0:5d:bc:d3:88:8f:bc:da:1e:57:9d:8a:7b:42:02:d9:
         7b:15:d6:f5:d4:cc:f3:7f:7f:08:60:2f:4e:b6:66:13:42:99:
         50:7d:d9:d2:3b:75:6a:82:7d:d0:9c:fe:66:3d:8d:70:a5:46:
         0f:2b:29:ad:7e:1d:23:e2:56:ec:b6:ae:2e:1c:33:c3:be:57:
         13:47:8e:a9:fc:95:a6:30:5d:0b:a9:d7:9f:24:8f:ee:cc:90:
         fe:f2:b3:c5:37:9c:15:f5:3a:16:cd:a0:0f:6b:54:3e:f0:b4:
         03:94:33:55:c9:f1:a9:ad:9e:ba:65:95:da:f8:88:80:7c:e6:
         0c:af:1c:63:37:dd:4d:3d:53:f4:56:4f:91:8a:d3:7f:41:63:
         97:8f:e5:53
-----BEGIN CERTIFICATE-----
MIID9DCCAtygAwIBAgIBATANBgkqhkiG9w0BAQsFADCBkzELMAkGA1UEBhMCRlIx
DzANBgNVBAgMBlJhZGl1czESMBAGA1UEBwwJU29tZXdoZXJlMRUwEwYDVQQKDAxF
eGFtcGxlIEluYy4xIDAeBgkqhkiG9w0BCQEWEWFkbWluQGV4YW1wbGUub3JnMSYw
JAYDVQQDDB1FeGFtcGxlIENlcnRpZmljYXRlIEF1dGhvcml0eTAeFw0yMzA4MjMw
OTUzMzRaFw0yMzEwMjIwOTUzMzRaMHwxCzAJBgNVBAYTAkZSMQ8wDQYDVQQIDAZS
YWRpdXMxFTATBgNVBAoMDEV4YW1wbGUgSW5jLjEjMCEGA1UEAwwaRXhhbXBsZSBT
ZXJ2ZXIgQ2VydGlmaWNhdGUxIDAeBgkqhkiG9w0BCQEWEWFkbWluQGV4YW1wbGUu
b3JnMIIBIjANBgkqhkiG9w0BAQEFAAOCAQ8AMIIBCgKCAQEArBbYsDtfM59pM+5i
e29WOcLmyNUWYC8DNk9amEkDim12PsqWVVivnCO+0pP0sYjGU096sFoD4VKsSi00
7frzkJIdjmerX9iB13JEzmaUuL7fP+UbWxExoGtiGWWB6pzO75sWF+oQC0TOdK6O
87kEDGRPlavrL6WZJvR8N6HCiIxsVJtpqpkB3KiXHQ+8TyThjoLII8/h3xAu2sEw
Zta9Zk+P5M/rFka4Sb/r+lobeO7R1OZYQrE13/PcnkxW5g3+dHyNj1VPfa9fU4Ma
9O/sIgMEDQ9AvfDLZSdu+ej5MsCb2lwOiLuids43jN+xAfD5fTJAnfeMcjzNMnWa
BToi+wIDAQABo2kwZzATBgNVHSUEDDAKBggrBgEFBQcDATA2BgNVHR8ELzAtMCug
KaAnhiVodHRwOi8vd3d3LmV4YW1wbGUuY29tL2V4YW1wbGVfY2EuY3JsMBgGA1Ud
IAQRMA8wDQYLKwYBBAGCvmgBAwIwDQYJKoZIhvcNAQELBQADggEBADwVUCNmJgsR
bWkTtiFo2quGhQpJNTA2OVAtfVnjdwUExBO791+pALgrXDWgCmIZlRyHnj2cUjOi
cmYwXAjtyW0O03C9jdZv+yR2hQgAf5GzYOzf7alhPixIHeUwt+9hRBbAfpTjZCl1
6hGB4/SO8F2804iPvNoeV52Ke0IC2XsV1vXUzPN/fwhgL062ZhNCmVB92dI7dWqC
fdCc/mY9jXClRg8rKa1+HSPiVuy2ri4cM8O+VxNHjqn8laYwXQup158kj+7MkP7y
s8U3nBX1OhbNoA9rVD7wtAOUM1XJ8amtnrplldr4iIB85gyvHGM33U09U/RWT5GK
039BY5eP5VM=
-----END CERTIFICATE-----
